; Function Attrs: mustprogress uwtable
define hidden noundef zeroext i1 @_ZN4cvc58internal6theory7strings16InferenceManager13sendInferenceERKSt6vectorINS0_12NodeTemplateILb1EEESaIS6_EES6_NS1_11InferenceIdEbb(ptr noundef nonnull align 8 dereferenceable(432) %0, ptr noundef nonnull align 8 dereferenceable(24) %1, ptr noundef readonly captures(none) %2, i32 noundef %3, i1 noundef zeroext %4, i1 noundef zeroext %5) local_unnamed_addr #3 align 2 personality ptr @__gxx_personality_v0 {
  %7 = alloca %"class.std::vector.311", align 8
  %8 = alloca %"class.cvc5::internal::NodeTemplate", align 8
  call void @llvm.lifetime.start.p0(i64 24, ptr nonnull %7) #21
  call void @llvm.memset.p0.i64(ptr noundef nonnull align 8 dereferenceable(24) %7, i8 0, i64 24, i1 false)
  %9 = load ptr, ptr %2, align 8, !tbaa !88
  store ptr %9, ptr %8, align 8, !tbaa !88
  %10 = load i64, ptr %9, align 8
  %11 = lshr i64 %10, 40
  %12 = trunc nuw nsw i64 %11 to i32
  %13 = and i32 %12, 1048575
  %14 = icmp samesign ult i32 %13, 1048574
  br i1 %14, label %15, label %20, !prof !90

15:                                               ; preds = %6
  %16 = add i64 %10, 1099511627776
  %17 = and i64 %16, 1152920405095219200
  %18 = and i64 %10, -1152920405095219201
  %19 = or disjoint i64 %17, %18
  store i64 %19, ptr %9, align 8
  br label %_ZN4cvc58internal12NodeTemplateILb1EEC2ERKS2_.exit

20:                                               ; preds = %6
  %21 = icmp eq i32 %13, 1048574
  br i1 %21, label %22, label %_ZN4cvc58internal12NodeTemplateILb1EEC2ERKS2_.exit, !prof !89

22:                                               ; preds = %20
  %23 = or i64 %10, 1152920405095219200
  store i64 %23, ptr %9, align 8
  invoke void @_ZN4cvc58internal4expr9NodeValue20markRefCountMaxedOutEv(ptr noundef nonnull align 8 dereferenceable(24) %9)
          to label %_ZN4cvc58internal12NodeTemplateILb1EEC2ERKS2_.exit unwind label %63

_ZN4cvc58internal12NodeTemplateILb1EEC2ERKS2_.exit: ; preds = %20, %15, %22
  %24 = invoke noundef zeroext i1 @_ZN4cvc58internal6theory7strings16InferenceManager13sendInferenceERKSt6vectorINS0_12NodeTemplateILb1EEESaIS6_EESA_S6_NS1_11InferenceIdEbb(ptr noundef nonnull align 8 dereferenceable(432) %0, ptr noundef nonnull align 8 dereferenceable(24) %1, ptr noundef nonnull align 8 dereferenceable(24) %7, ptr noundef nonnull %8, i32 noundef %3, i1 noundef zeroext %4, i1 noundef zeroext %5)
          to label %25 unwind label %65

25:                                               ; preds = %_ZN4cvc58internal12NodeTemplateILb1EEC2ERKS2_.exit
  %26 = load ptr, ptr %8, align 8, !tbaa !88
  %27 = load i64, ptr %26, align 8
  %28 = and i64 %27, 1152920405095219200
  %.not.i.i = icmp eq i64 %28, 1152920405095219200
  br i1 %.not.i.i, label %_ZN4cvc58internal12NodeTemplateILb1EED2Ev.exit, label %29, !prof !89

29:                                               ; preds = %25
  %30 = add i64 %27, 1152920405095219200
  %31 = and i64 %30, 1152920405095219200
  %32 = and i64 %27, -1152920405095219201
  %33 = or disjoint i64 %31, %32
  store i64 %33, ptr %26, align 8
  %34 = icmp eq i64 %31, 0
  br i1 %34, label %35, label %_ZN4cvc58internal12NodeTemplateILb1EED2Ev.exit, !prof !89

35:                                               ; preds = %29
  invoke void @_ZN4cvc58internal4expr9NodeValue15markForDeletionEv(ptr noundef nonnull align 8 dereferenceable(24) %26)
          to label %_ZN4cvc58internal12NodeTemplateILb1EED2Ev.exit unwind label %36

36:                                               ; preds = %35
  %37 = landingpad { ptr, i32 }
          catch ptr null
  %38 = extractvalue { ptr, i32 } %37, 0
  call void @__clang_call_terminate(ptr %38) #24
  unreachable

_ZN4cvc58internal12NodeTemplateILb1EED2Ev.exit:   ; preds = %25, %29, %35
  %39 = load ptr, ptr %7, align 8, !tbaa !142
  %40 = getelementptr inbounds nuw i8, ptr %7, i64 8
  %41 = load ptr, ptr %40, align 8, !tbaa !145
  %.not4.i.i.i.i = icmp eq ptr %39, %41
  br i1 %.not4.i.i.i.i, label %_ZSt8_DestroyIPN4cvc58internal12NodeTemplateILb1EEES3_EvT_S5_RSaIT0_E.exit.i, label %.lr.ph.i.i.i.i

.lr.ph.i.i.i.i:                                   ; preds = %_ZN4cvc58internal12NodeTemplateILb1EED2Ev.exit, %_ZSt8_DestroyIN4cvc58internal12NodeTemplateILb1EEEEvPT_.exit.i.i.i.i
  %.05.i.i.i.i = phi ptr [ %55, %_ZSt8_DestroyIN4cvc58internal12NodeTemplateILb1EEEEvPT_.exit.i.i.i.i ], [ %39, %_ZN4cvc58internal12NodeTemplateILb1EED2Ev.exit ]
  %42 = load ptr, ptr %.05.i.i.i.i, align 8, !tbaa !88
  %43 = load i64, ptr %42, align 8
  %44 = and i64 %43, 1152920405095219200
  %.not.i.i.i.i.i.i.i = icmp eq i64 %44, 1152920405095219200
  br i1 %.not.i.i.i.i.i.i.i, label %_ZSt8_DestroyIN4cvc58internal12NodeTemplateILb1EEEEvPT_.exit.i.i.i.i, label %45, !prof !89

45:                                               ; preds = %.lr.ph.i.i.i.i
  %46 = add i64 %43, 1152920405095219200
  %47 = and i64 %46, 1152920405095219200
  %48 = and i64 %43, -1152920405095219201
  %49 = or disjoint i64 %47, %48
  store i64 %49, ptr %42, align 8
  %50 = icmp eq i64 %47, 0
  br i1 %50, label %51, label %_ZSt8_DestroyIN4cvc58internal12NodeTemplateILb1EEEEvPT_.exit.i.i.i.i, !prof !89

51:                                               ; preds = %45
  invoke void @_ZN4cvc58internal4expr9NodeValue15markForDeletionEv(ptr noundef nonnull align 8 dereferenceable(24) %42)
          to label %_ZSt8_DestroyIN4cvc58internal12NodeTemplateILb1EEEEvPT_.exit.i.i.i.i unwind label %52

52:                                               ; preds = %51
  %53 = landingpad { ptr, i32 }
          catch ptr null
  %54 = extractvalue { ptr, i32 } %53, 0
  call void @__clang_call_terminate(ptr %54) #24
  unreachable

_ZSt8_DestroyIN4cvc58internal12NodeTemplateILb1EEEEvPT_.exit.i.i.i.i: ; preds = %51, %45, %.lr.ph.i.i.i.i
  %55 = getelementptr inbounds nuw i8, ptr %.05.i.i.i.i, i64 8
  %.not.i.i.i.i = icmp eq ptr %55, %41
  br i1 %.not.i.i.i.i, label %_ZSt8_DestroyIPN4cvc58internal12NodeTemplateILb1EEES3_EvT_S5_RSaIT0_E.exitthread-pre-split.i, label %.lr.ph.i.i.i.i, !llvm.loop !146

_ZSt8_DestroyIPN4cvc58internal12NodeTemplateILb1EEES3_EvT_S5_RSaIT0_E.exitthread-pre-split.i: ; preds = %_ZSt8_DestroyIN4cvc58internal12NodeTemplateILb1EEEEvPT_.exit.i.i.i.i
  %.pr.i = load ptr, ptr %7, align 8, !tbaa !142
  br label %_ZSt8_DestroyIPN4cvc58internal12NodeTemplateILb1EEES3_EvT_S5_RSaIT0_E.exit.i

_ZSt8_DestroyIPN4cvc58internal12NodeTemplateILb1EEES3_EvT_S5_RSaIT0_E.exit.i: ; preds = %_ZSt8_DestroyIPN4cvc58internal12NodeTemplateILb1EEES3_EvT_S5_RSaIT0_E.exitthread-pre-split.i, %_ZN4cvc58internal12NodeTemplateILb1EED2Ev.exit
  %56 = phi ptr [ %.pr.i, %_ZSt8_DestroyIPN4cvc58internal12NodeTemplateILb1EEES3_EvT_S5_RSaIT0_E.exitthread-pre-split.i ], [ %39, %_ZN4cvc58internal12NodeTemplateILb1EED2Ev.exit ]
  %.not.i.i.i = icmp eq ptr %56, null
  br i1 %.not.i.i.i, label %_ZNSt6vectorIN4cvc58internal12NodeTemplateILb1EEESaIS3_EED2Ev.exit, label %57

57:                                               ; preds = %_ZSt8_DestroyIPN4cvc58internal12NodeTemplateILb1EEES3_EvT_S5_RSaIT0_E.exit.i
  %58 = getelementptr inbounds nuw i8, ptr %7, i64 16
  %59 = load ptr, ptr %58, align 8, !tbaa !147
  %60 = ptrtoint ptr %59 to i64
  %61 = ptrtoint ptr %56 to i64
  %62 = sub i64 %60, %61
  call void @_ZdlPvm(ptr noundef nonnull %56, i64 noundef %62) #22
  br label %_ZNSt6vectorIN4cvc58internal12NodeTemplateILb1EEESaIS3_EED2Ev.exit

_ZNSt6vectorIN4cvc58internal12NodeTemplateILb1EEESaIS3_EED2Ev.exit: ; preds = %_ZSt8_DestroyIPN4cvc58internal12NodeTemplateILb1EEES3_EvT_S5_RSaIT0_E.exit.i, %57
  call void @llvm.lifetime.end.p0(i64 24, ptr nonnull %7) #21
  ret i1 %24

63:                                               ; preds = %22
  %64 = landingpad { ptr, i32 }
          cleanup
  br label %67

65:                                               ; preds = %_ZN4cvc58internal12NodeTemplateILb1EEC2ERKS2_.exit
  %66 = landingpad { ptr, i32 }
          cleanup
  call void @_ZN4cvc58internal12NodeTemplateILb1EED2Ev(ptr noundef nonnull align 8 dereferenceable(8) %8) #21
  br label %67

67:                                               ; preds = %65, %63
  %.pn = phi { ptr, i32 } [ %66, %65 ], [ %64, %63 ]
  call void @_ZNSt6vectorIN4cvc58internal12NodeTemplateILb1EEESaIS3_EED2Ev(ptr noundef nonnull align 8 dereferenceable(24) %7) #21
  call void @llvm.lifetime.end.p0(i64 24, ptr nonnull %7) #21
  resume { ptr, i32 } %.pn
}